target datalayout = "e-m:e-p270:32:32-p271:32:32-p272:64:64-i64:64-i128:128-f80:128-n8:16:32:64-S128"
target triple = "x86_64-pc-linux-gnu"

; Function Attrs: nounwind uwtable
define void @bn_mul_normal(ptr noundef %0, ptr noundef %1, i32 noundef %2, ptr noundef %3, i32 noundef %4) #0 {
  %6 = alloca ptr, align 8
  %7 = alloca ptr, align 8
  %8 = alloca i32, align 4
  %9 = alloca ptr, align 8
  %10 = alloca i32, align 4
  %11 = alloca ptr, align 8
  %12 = alloca i32, align 4
  %13 = alloca ptr, align 8
  %14 = alloca i32, align 4
  store ptr %0, ptr %6, align 8, !tbaa !3
  store ptr %1, ptr %7, align 8, !tbaa !3
  store i32 %2, ptr %8, align 4, !tbaa !8
  store ptr %3, ptr %9, align 8, !tbaa !3
  store i32 %4, ptr %10, align 4, !tbaa !8
  call void @llvm.lifetime.start.p0(i64 8, ptr %11) #4
  %15 = load i32, ptr %8, align 4, !tbaa !8
  %16 = load i32, ptr %10, align 4, !tbaa !8
  %17 = icmp slt i32 %15, %16
  br i1 %17, label %18, label %25

18:                                               ; preds = %5
  call void @llvm.lifetime.start.p0(i64 4, ptr %12) #4
  call void @llvm.lifetime.start.p0(i64 8, ptr %13) #4
  %19 = load i32, ptr %8, align 4, !tbaa !8
  store i32 %19, ptr %12, align 4, !tbaa !8
  %20 = load i32, ptr %10, align 4, !tbaa !8
  store i32 %20, ptr %8, align 4, !tbaa !8
  %21 = load i32, ptr %12, align 4, !tbaa !8
  store i32 %21, ptr %10, align 4, !tbaa !8
  %22 = load ptr, ptr %7, align 8, !tbaa !3
  store ptr %22, ptr %13, align 8, !tbaa !3
  %23 = load ptr, ptr %9, align 8, !tbaa !3
  store ptr %23, ptr %7, align 8, !tbaa !3
  %24 = load ptr, ptr %13, align 8, !tbaa !3
  store ptr %24, ptr %9, align 8, !tbaa !3
  call void @llvm.lifetime.end.p0(i64 8, ptr %13) #4
  call void @llvm.lifetime.end.p0(i64 4, ptr %12) #4
  br label %25

25:                                               ; preds = %18, %5
  %26 = load ptr, ptr %6, align 8, !tbaa !3
  %27 = load i32, ptr %8, align 4, !tbaa !8
  %28 = sext i32 %27 to i64
  %29 = getelementptr inbounds i64, ptr %26, i64 %28
  store ptr %29, ptr %11, align 8, !tbaa !3
  %30 = load i32, ptr %10, align 4, !tbaa !8
  %31 = icmp sle i32 %30, 0
  br i1 %31, label %32, label %37

32:                                               ; preds = %25
  %33 = load ptr, ptr %6, align 8, !tbaa !3
  %34 = load ptr, ptr %7, align 8, !tbaa !3
  %35 = load i32, ptr %8, align 4, !tbaa !8
  %36 = call i64 @bn_mul_words(ptr noundef %33, ptr noundef %34, i32 noundef %35, i64 noundef 0)
  store i32 1, ptr %14, align 4
  br label %115

37:                                               ; preds = %25
  %38 = load ptr, ptr %6, align 8, !tbaa !3
  %39 = load ptr, ptr %7, align 8, !tbaa !3
  %40 = load i32, ptr %8, align 4, !tbaa !8
  %41 = load ptr, ptr %9, align 8, !tbaa !3
  %42 = getelementptr inbounds i64, ptr %41, i64 0
  %43 = load i64, ptr %42, align 8, !tbaa !10
  %44 = call i64 @bn_mul_words(ptr noundef %38, ptr noundef %39, i32 noundef %40, i64 noundef %43)
  %45 = load ptr, ptr %11, align 8, !tbaa !3
  %46 = getelementptr inbounds i64, ptr %45, i64 0
  store i64 %44, ptr %46, align 8, !tbaa !10
  br label %47

47:                                               ; preds = %37
  br label %48

48:                                               ; preds = %98, %47
  %49 = load i32, ptr %10, align 4, !tbaa !8
  %50 = add nsw i32 %49, -1
  store i32 %50, ptr %10, align 4, !tbaa !8
  %51 = icmp sle i32 %50, 0
  br i1 %51, label %52, label %53

52:                                               ; preds = %48
  store i32 1, ptr %14, align 4
  br label %115

53:                                               ; preds = %48
  %54 = load ptr, ptr %6, align 8, !tbaa !3
  %55 = getelementptr inbounds i64, ptr %54, i64 1
  %56 = load ptr, ptr %7, align 8, !tbaa !3
  %57 = load i32, ptr %8, align 4, !tbaa !8
  %58 = load ptr, ptr %9, align 8, !tbaa !3
  %59 = getelementptr inbounds i64, ptr %58, i64 1
  %60 = load i64, ptr %59, align 8, !tbaa !10
  %61 = call i64 @bn_mul_add_words(ptr noundef %55, ptr noundef %56, i32 noundef %57, i64 noundef %60)
  %62 = load ptr, ptr %11, align 8, !tbaa !3
  %63 = getelementptr inbounds i64, ptr %62, i64 1
  store i64 %61, ptr %63, align 8, !tbaa !10
  %64 = load i32, ptr %10, align 4, !tbaa !8
  %65 = add nsw i32 %64, -1
  store i32 %65, ptr %10, align 4, !tbaa !8
  %66 = icmp sle i32 %65, 0
  br i1 %66, label %67, label %68

67:                                               ; preds = %53
  store i32 1, ptr %14, align 4
  br label %115

68:                                               ; preds = %53
  %69 = load ptr, ptr %6, align 8, !tbaa !3
  %70 = getelementptr inbounds i64, ptr %69, i64 2
  %71 = load ptr, ptr %7, align 8, !tbaa !3
  %72 = load i32, ptr %8, align 4, !tbaa !8
  %73 = load ptr, ptr %9, align 8, !tbaa !3
  %74 = getelementptr inbounds i64, ptr %73, i64 2
  %75 = load i64, ptr %74, align 8, !tbaa !10
  %76 = call i64 @bn_mul_add_words(ptr noundef %70, ptr noundef %71, i32 noundef %72, i64 noundef %75)
  %77 = load ptr, ptr %11, align 8, !tbaa !3
  %78 = getelementptr inbounds i64, ptr %77, i64 2
  store i64 %76, ptr %78, align 8, !tbaa !10
  %79 = load i32, ptr %10, align 4, !tbaa !8
  %80 = add nsw i32 %79, -1
  store i32 %80, ptr %10, align 4, !tbaa !8
  %81 = icmp sle i32 %80, 0
  br i1 %81, label %82, label %83

82:                                               ; preds = %68
  store i32 1, ptr %14, align 4
  br label %115

83:                                               ; preds = %68
  %84 = load ptr, ptr %6, align 8, !tbaa !3
  %85 = getelementptr inbounds i64, ptr %84, i64 3
  %86 = load ptr, ptr %7, align 8, !tbaa !3
  %87 = load i32, ptr %8, align 4, !tbaa !8
  %88 = load ptr, ptr %9, align 8, !tbaa !3
  %89 = getelementptr inbounds i64, ptr %88, i64 3
  %90 = load i64, ptr %89, align 8, !tbaa !10
  %91 = call i64 @bn_mul_add_words(ptr noundef %85, ptr noundef %86, i32 noundef %87, i64 noundef %90)
  %92 = load ptr, ptr %11, align 8, !tbaa !3
  %93 = getelementptr inbounds i64, ptr %92, i64 3
  store i64 %91, ptr %93, align 8, !tbaa !10
  %94 = load i32, ptr %10, align 4, !tbaa !8
  %95 = add nsw i32 %94, -1
  store i32 %95, ptr %10, align 4, !tbaa !8
  %96 = icmp sle i32 %95, 0
  br i1 %96, label %97, label %98

97:                                               ; preds = %83
  store i32 1, ptr %14, align 4
  br label %115

98:                                               ; preds = %83
  %99 = load ptr, ptr %6, align 8, !tbaa !3
  %100 = getelementptr inbounds i64, ptr %99, i64 4
  %101 = load ptr, ptr %7, align 8, !tbaa !3
  %102 = load i32, ptr %8, align 4, !tbaa !8
  %103 = load ptr, ptr %9, align 8, !tbaa !3
  %104 = getelementptr inbounds i64, ptr %103, i64 4
  %105 = load i64, ptr %104, align 8, !tbaa !10
  %106 = call i64 @bn_mul_add_words(ptr noundef %100, ptr noundef %101, i32 noundef %102, i64 noundef %105)
  %107 = load ptr, ptr %11, align 8, !tbaa !3
  %108 = getelementptr inbounds i64, ptr %107, i64 4
  store i64 %106, ptr %108, align 8, !tbaa !10
  %109 = load ptr, ptr %11, align 8, !tbaa !3
  %110 = getelementptr inbounds i64, ptr %109, i64 4
  store ptr %110, ptr %11, align 8, !tbaa !3
  %111 = load ptr, ptr %6, align 8, !tbaa !3
  %112 = getelementptr inbounds i64, ptr %111, i64 4
  store ptr %112, ptr %6, align 8, !tbaa !3
  %113 = load ptr, ptr %9, align 8, !tbaa !3
  %114 = getelementptr inbounds i64, ptr %113, i64 4
  store ptr %114, ptr %9, align 8, !tbaa !3
  br label %48

115:                                              ; preds = %97, %82, %67, %52, %32
  call void @llvm.lifetime.end.p0(i64 8, ptr %11) #4
  ret void
}